; ModuleID = '58/691.c'
source_filename = "58/691.c"
target datalayout = "e-m:e-p270:32:32-p271:32:32-p272:64:64-i64:64-f80:128-n8:16:32:64-S128"
target triple = "x86_64-pc-linux-gnu"

@.str = private unnamed_addr constant [4 x i8] c"%d\0A\00", align 1

; Function Attrs: noinline nounwind uwtable
define dso_local i32 @main() #0 {
  %1 = alloca i32, align 4
  %2 = alloca i32, align 4
  %3 = alloca i32, align 4
  %4 = alloca i32, align 4
  %5 = alloca i32, align 4
  %6 = alloca i32, align 4
  %7 = alloca [1000 x [81 x i8]], align 16
  %8 = alloca [10 x i8], align 1
  store i32 0, i32* %1, align 4
  %9 = getelementptr inbounds [10 x i8], [10 x i8]* %8, i64 0, i64 0
  %10 = call i32 (i8*, ...) bitcast (i32 (...)* @gets to i32 (i8*, ...)*)(i8* %9)
  %11 = getelementptr inbounds [10 x i8], [10 x i8]* %8, i64 0, i64 0
  %12 = call i32 @atoi(i8* %11) #3
  store i32 %12, i32* %4, align 4
  store i32 0, i32* %2, align 4
  br label %13

13:                                               ; preds = %153, %0
  %14 = load i32, i32* %2, align 4
  %15 = load i32, i32* %4, align 4
  %16 = icmp slt i32 %14, %15
  br i1 %16, label %17, label %156

17:                                               ; preds = %13
  store i32 1, i32* %6, align 4
  %18 = load i32, i32* %2, align 4
  %19 = sext i32 %18 to i64
  %20 = getelementptr inbounds [1000 x [81 x i8]], [1000 x [81 x i8]]* %7, i64 0, i64 %19
  %21 = getelementptr inbounds [81 x i8], [81 x i8]* %20, i64 0, i64 0
  %22 = call i32 (i8*, ...) bitcast (i32 (...)* @gets to i32 (i8*, ...)*)(i8* %21)
  %23 = load i32, i32* %2, align 4
  %24 = sext i32 %23 to i64
  %25 = getelementptr inbounds [1000 x [81 x i8]], [1000 x [81 x i8]]* %7, i64 0, i64 %24
  %26 = getelementptr inbounds [81 x i8], [81 x i8]* %25, i64 0, i64 0
  %27 = call i64 @strlen(i8* %26) #3
  %28 = trunc i64 %27 to i32
  store i32 %28, i32* %5, align 4
  %29 = load i32, i32* %2, align 4
  %30 = sext i32 %29 to i64
  %31 = getelementptr inbounds [1000 x [81 x i8]], [1000 x [81 x i8]]* %7, i64 0, i64 %30
  %32 = getelementptr inbounds [81 x i8], [81 x i8]* %31, i64 0, i64 0
  %33 = load i8, i8* %32, align 1
  %34 = sext i8 %33 to i32
  %35 = icmp eq i32 %34, 95
  br i1 %35, label %68, label %36

36:                                               ; preds = %17
  %37 = load i32, i32* %2, align 4
  %38 = sext i32 %37 to i64
  %39 = getelementptr inbounds [1000 x [81 x i8]], [1000 x [81 x i8]]* %7, i64 0, i64 %38
  %40 = getelementptr inbounds [81 x i8], [81 x i8]* %39, i64 0, i64 0
  %41 = load i8, i8* %40, align 1
  %42 = sext i8 %41 to i32
  %43 = icmp sge i32 %42, 97
  br i1 %43, label %44, label %52

44:                                               ; preds = %36
  %45 = load i32, i32* %2, align 4
  %46 = sext i32 %45 to i64
  %47 = getelementptr inbounds [1000 x [81 x i8]], [1000 x [81 x i8]]* %7, i64 0, i64 %46
  %48 = getelementptr inbounds [81 x i8], [81 x i8]* %47, i64 0, i64 0
  %49 = load i8, i8* %48, align 1
  %50 = sext i8 %49 to i32
  %51 = icmp sle i32 %50, 122
  br i1 %51, label %68, label %52

52:                                               ; preds = %44, %36
  %53 = load i32, i32* %2, align 4
  %54 = sext i32 %53 to i64
  %55 = getelementptr inbounds [1000 x [81 x i8]], [1000 x [81 x i8]]* %7, i64 0, i64 %54
  %56 = getelementptr inbounds [81 x i8], [81 x i8]* %55, i64 0, i64 0
  %57 = load i8, i8* %56, align 1
  %58 = sext i8 %57 to i32
  %59 = icmp sge i32 %58, 65
  br i1 %59, label %60, label %149

60:                                               ; preds = %52
  %61 = load i32, i32* %2, align 4
  %62 = sext i32 %61 to i64
  %63 = getelementptr inbounds [1000 x [81 x i8]], [1000 x [81 x i8]]* %7, i64 0, i64 %62
  %64 = getelementptr inbounds [81 x i8], [81 x i8]* %63, i64 0, i64 0
  %65 = load i8, i8* %64, align 1
  %66 = sext i8 %65 to i32
  %67 = icmp sle i32 %66, 90
  br i1 %67, label %68, label %149

68:                                               ; preds = %60, %44, %17
  store i32 0, i32* %3, align 4
  br label %69

69:                                               ; preds = %145, %68
  %70 = load i32, i32* %3, align 4
  %71 = load i32, i32* %5, align 4
  %72 = icmp slt i32 %70, %71
  br i1 %72, label %73, label %148

73:                                               ; preds = %69
  %74 = load i32, i32* %2, align 4
  %75 = sext i32 %74 to i64
  %76 = getelementptr inbounds [1000 x [81 x i8]], [1000 x [81 x i8]]* %7, i64 0, i64 %75
  %77 = load i32, i32* %3, align 4
  %78 = sext i32 %77 to i64
  %79 = getelementptr inbounds [81 x i8], [81 x i8]* %76, i64 0, i64 %78
  %80 = load i8, i8* %79, align 1
  %81 = sext i8 %80 to i32
  %82 = icmp eq i32 %81, 95
  br i1 %82, label %143, label %83

83:                                               ; preds = %73
  %84 = load i32, i32* %2, align 4
  %85 = sext i32 %84 to i64
  %86 = getelementptr inbounds [1000 x [81 x i8]], [1000 x [81 x i8]]* %7, i64 0, i64 %85
  %87 = load i32, i32* %3, align 4
  %88 = sext i32 %87 to i64
  %89 = getelementptr inbounds [81 x i8], [81 x i8]* %86, i64 0, i64 %88
  %90 = load i8, i8* %89, align 1
  %91 = sext i8 %90 to i32
  %92 = icmp sge i32 %91, 97
  br i1 %92, label %93, label %103

93:                                               ; preds = %83
  %94 = load i32, i32* %2, align 4
  %95 = sext i32 %94 to i64
  %96 = getelementptr inbounds [1000 x [81 x i8]], [1000 x [81 x i8]]* %7, i64 0, i64 %95
  %97 = load i32, i32* %3, align 4
  %98 = sext i32 %97 to i64
  %99 = getelementptr inbounds [81 x i8], [81 x i8]* %96, i64 0, i64 %98
  %100 = load i8, i8* %99, align 1
  %101 = sext i8 %100 to i32
  %102 = icmp sle i32 %101, 122
  br i1 %102, label %143, label %103

103:                                              ; preds = %93, %83
  %104 = load i32, i32* %2, align 4
  %105 = sext i32 %104 to i64
  %106 = getelementptr inbounds [1000 x [81 x i8]], [1000 x [81 x i8]]* %7, i64 0, i64 %105
  %107 = load i32, i32* %3, align 4
  %108 = sext i32 %107 to i64
  %109 = getelementptr inbounds [81 x i8], [81 x i8]* %106, i64 0, i64 %108
  %110 = load i8, i8* %109, align 1
  %111 = sext i8 %110 to i32
  %112 = icmp sge i32 %111, 65
  br i1 %112, label %113, label %123

113:                                              ; preds = %103
  %114 = load i32, i32* %2, align 4
  %115 = sext i32 %114 to i64
  %116 = getelementptr inbounds [1000 x [81 x i8]], [1000 x [81 x i8]]* %7, i64 0, i64 %115
  %117 = load i32, i32* %3, align 4
  %118 = sext i32 %117 to i64
  %119 = getelementptr inbounds [81 x i8], [81 x i8]* %116, i64 0, i64 %118
  %120 = load i8, i8* %119, align 1
  %121 = sext i8 %120 to i32
  %122 = icmp sle i32 %121, 90
  br i1 %122, label %143, label %123

123:                                              ; preds = %113, %103
  %124 = load i32, i32* %2, align 4
  %125 = sext i32 %124 to i64
  %126 = getelementptr inbounds [1000 x [81 x i8]], [1000 x [81 x i8]]* %7, i64 0, i64 %125
  %127 = load i32, i32* %3, align 4
  %128 = sext i32 %127 to i64
  %129 = getelementptr inbounds [81 x i8], [81 x i8]* %126, i64 0, i64 %128
  %130 = load i8, i8* %129, align 1
  %131 = sext i8 %130 to i32
  %132 = icmp sge i32 %131, 48
  br i1 %132, label %133, label %144

133:                                              ; preds = %123
  %134 = load i32, i32* %2, align 4
  %135 = sext i32 %134 to i64
  %136 = getelementptr inbounds [1000 x [81 x i8]], [1000 x [81 x i8]]* %7, i64 0, i64 %135
  %137 = load i32, i32* %3, align 4
  %138 = sext i32 %137 to i64
  %139 = getelementptr inbounds [81 x i8], [81 x i8]* %136, i64 0, i64 %138
  %140 = load i8, i8* %139, align 1
  %141 = sext i8 %140 to i32
  %142 = icmp sle i32 %141, 57
  br i1 %142, label %143, label %144

143:                                              ; preds = %133, %113, %93, %73
  br label %145

144:                                              ; preds = %133, %123
  store i32 0, i32* %6, align 4
  br label %148

145:                                              ; preds = %143
  %146 = load i32, i32* %3, align 4
  %147 = add nsw i32 %146, 1
  store i32 %147, i32* %3, align 4
  br label %69

148:                                              ; preds = %144, %69
  br label %150

149:                                              ; preds = %60, %52
  store i32 0, i32* %6, align 4
  br label %150

150:                                              ; preds = %149, %148
  %151 = load i32, i32* %6, align 4
  %152 = call i32 (i8*, ...) @printf(i8* getelementptr inbounds ([4 x i8], [4 x i8]* @.str, i64 0, i64 0), i32 %151)
  br label %153

153:                                              ; preds = %150
  %154 = load i32, i32* %2, align 4
  %155 = add nsw i32 %154, 1
  store i32 %155, i32* %2, align 4
  br label %13

156:                                              ; preds = %13
  ret i32 0
}

declare dso_local i32 @gets(...) #1

; Function Attrs: nounwind readonly
declare dso_local i32 @atoi(i8*) #2

; Function Attrs: nounwind readonly
declare dso_local i64 @strlen(i8*) #2

declare dso_local i32 @printf(i8*, ...) #1


!llvm.module.flags = !{!0}
!llvm.ident = !{!1}

!0 = !{i32 1, !"wchar_size", i32 4}
!1 = !{!"clang version 10.0.0-4ubuntu1 "}
