; ModuleID = 'source-C-CXX/57/691.c'
source_filename = "source-C-CXX/57/691.c"
target datalayout = "e-m:e-p270:32:32-p271:32:32-p272:64:64-i64:64-f80:128-n8:16:32:64-S128"
target triple = "x86_64-pc-linux-gnu"

@.str = private unnamed_addr constant [4 x i8] c"%d\0A\00", align 1

; Function Attrs: nounwind sspstrong uwtable
define dso_local i32 @main() local_unnamed_addr #0 {
  %1 = alloca [1000 x [81 x i8]], align 16
  %2 = alloca [10 x i8], align 1
  %3 = getelementptr inbounds [1000 x [81 x i8]], [1000 x [81 x i8]]* %1, i64 0, i64 0, i64 0
  call void @llvm.lifetime.start.p0i8(i64 81000, i8* nonnull %3) #6
  %4 = getelementptr inbounds [10 x i8], [10 x i8]* %2, i64 0, i64 0
  call void @llvm.lifetime.start.p0i8(i64 10, i8* nonnull %4) #6
  %5 = call i32 (i8*, ...) bitcast (i32 (...)* @gets to i32 (i8*, ...)*)(i8* nonnull %4) #6
  %6 = call i64 @strtol(i8* nocapture nonnull %4, i8** null, i32 10) #6
  %7 = trunc i64 %6 to i32
  %8 = icmp sgt i32 %7, 0
  br i1 %8, label %9, label %55

9:                                                ; preds = %0
  %10 = and i64 %6, 4294967295
  br label %11

11:                                               ; preds = %9, %50
  %12 = phi i64 [ 0, %9 ], [ %53, %50 ]
  %13 = getelementptr inbounds [1000 x [81 x i8]], [1000 x [81 x i8]]* %1, i64 0, i64 %12, i64 0
  %14 = call i32 (i8*, ...) bitcast (i32 (...)* @gets to i32 (i8*, ...)*)(i8* nonnull %13) #6
  %15 = call i64 @strlen(i8* noundef nonnull %13) #7
  %16 = load i8, i8* %13, align 1, !tbaa !5
  %17 = icmp eq i8 %16, 95
  %18 = and i8 %16, -33
  %19 = add i8 %18, -65
  %20 = icmp ult i8 %19, 26
  %21 = or i1 %20, %17
  br i1 %21, label %22, label %50

22:                                               ; preds = %11
  %23 = trunc i64 %15 to i32
  %24 = icmp sgt i32 %23, 0
  br i1 %24, label %25, label %50

25:                                               ; preds = %22
  %26 = and i64 %15, 4294967295
  %27 = icmp eq i8 %16, 95
  %28 = and i8 %16, -33
  %29 = add i8 %28, -65
  %30 = icmp ult i8 %29, 26
  %31 = or i1 %30, %27
  %32 = add i8 %16, -48
  %33 = icmp ult i8 %32, 10
  %34 = or i1 %31, %33
  br i1 %34, label %35, label %50

35:                                               ; preds = %25, %38
  %36 = phi i64 [ %49, %38 ], [ 1, %25 ]
  %37 = icmp eq i64 %36, %26
  br i1 %37, label %50, label %38, !llvm.loop !8

38:                                               ; preds = %35
  %39 = getelementptr inbounds [1000 x [81 x i8]], [1000 x [81 x i8]]* %1, i64 0, i64 %12, i64 %36
  %40 = load i8, i8* %39, align 1, !tbaa !5
  %41 = icmp eq i8 %40, 95
  %42 = and i8 %40, -33
  %43 = add i8 %42, -65
  %44 = icmp ult i8 %43, 26
  %45 = or i1 %44, %41
  %46 = add i8 %40, -48
  %47 = icmp ult i8 %46, 10
  %48 = or i1 %45, %47
  %49 = add nuw nsw i64 %36, 1
  br i1 %48, label %35, label %50

50:                                               ; preds = %38, %35, %25, %22, %11
  %51 = phi i32 [ 0, %11 ], [ 1, %22 ], [ 0, %25 ], [ 1, %35 ], [ 0, %38 ]
  %52 = call i32 (i8*, ...) @printf(i8* nonnull dereferenceable(1) getelementptr inbounds ([4 x i8], [4 x i8]* @.str, i64 0, i64 0), i32 %51)
  %53 = add nuw nsw i64 %12, 1
  %54 = icmp eq i64 %53, %10
  br i1 %54, label %55, label %11, !llvm.loop !10

55:                                               ; preds = %50, %0
  call void @llvm.lifetime.end.p0i8(i64 10, i8* nonnull %4) #6
  call void @llvm.lifetime.end.p0i8(i64 81000, i8* nonnull %3) #6
  ret i32 0
}

; Function Attrs: argmemonly mustprogress nofree nosync nounwind willreturn
declare void @llvm.lifetime.start.p0i8(i64 immarg, i8* nocapture) #1

declare i32 @gets(...) local_unnamed_addr #2

; Function Attrs: argmemonly mustprogress nofree nounwind readonly willreturn
declare i64 @strlen(i8* nocapture) local_unnamed_addr #3

; Function Attrs: nofree nounwind
declare noundef i32 @printf(i8* nocapture noundef readonly, ...) local_unnamed_addr #4

; Function Attrs: argmemonly mustprogress nofree nosync nounwind willreturn
declare void @llvm.lifetime.end.p0i8(i64 immarg, i8* nocapture) #1

; Function Attrs: mustprogress nofree nounwind willreturn
declare i64 @strtol(i8* readonly, i8** nocapture, i32) local_unnamed_addr #5


!llvm.module.flags = !{!0, !1, !2, !3}
!llvm.ident = !{!4}

!0 = !{i32 1, !"wchar_size", i32 4}
!1 = !{i32 7, !"PIC Level", i32 2}
!2 = !{i32 7, !"PIE Level", i32 2}
!3 = !{i32 7, !"uwtable", i32 1}
!4 = !{!"clang version 13.0.0"}
!5 = !{!6, !6, i64 0}
!6 = !{!"omnipotent char", !7, i64 0}
!7 = !{!"Simple C/C++ TBAA"}
!8 = distinct !{!8, !9}
!9 = !{!"llvm.loop.mustprogress"}
!10 = distinct !{!10, !9}
